; Function Attrs: inlinehint nounwind sspstrong uwtable
define internal fastcc range(i32 1, 9) i32 @rb_ec_tag_state(ptr noundef %0) unnamed_addr #20 {
  %2 = getelementptr inbounds nuw i8, ptr %0, i64 24
  %3 = load ptr, ptr %2, align 8, !tbaa !152
  %4 = getelementptr inbounds nuw i8, ptr %3, i64 64
  %5 = load i32, ptr %4, align 8, !tbaa !149
  store i32 0, ptr %4, align 8, !tbaa !149
  %6 = getelementptr inbounds nuw i8, ptr %3, i64 68
  %7 = load i32, ptr %6, align 4, !tbaa !156
  %8 = getelementptr i8, ptr %0, i64 48
  %.val.i = load ptr, ptr %8, align 8, !tbaa !90
  %.not.i.i.i = icmp eq ptr %.val.i, null
  br i1 %.not.i.i.i, label %rb_ec_ractor_ptr.exit.i.i, label %9

9:                                                ; preds = %1
  %10 = getelementptr inbounds nuw i8, ptr %.val.i, i64 32
  %11 = load ptr, ptr %10, align 8, !tbaa !79
  %12 = getelementptr inbounds nuw i8, ptr %11, i64 88
  %13 = getelementptr inbounds nuw i8, ptr %.val.i, i64 24
  %14 = load ptr, ptr %13, align 8, !tbaa !57
  br label %rb_ec_ractor_ptr.exit.i.i

rb_ec_ractor_ptr.exit.i.i:                        ; preds = %9, %1
  %.in.i.i = phi ptr [ %12, %9 ], [ inttoptr (i64 88 to ptr), %1 ]
  %.0.i2.i.i = phi ptr [ %11, %9 ], [ null, %1 ]
  %.0.i6.i.i = phi ptr [ %14, %9 ], [ null, %1 ]
  %15 = load ptr, ptr %.in.i.i, align 8, !tbaa !154
  %.not.i.i = icmp eq ptr %15, %.0.i6.i.i
  br i1 %.not.i.i, label %16, label %rb_ec_vm_lock_rec.exit.i

16:                                               ; preds = %rb_ec_ractor_ptr.exit.i.i
  %17 = getelementptr inbounds nuw i8, ptr %.0.i2.i.i, i64 96
  %18 = load i32, ptr %17, align 8, !tbaa !155
  br label %rb_ec_vm_lock_rec.exit.i

rb_ec_vm_lock_rec.exit.i:                         ; preds = %16, %rb_ec_ractor_ptr.exit.i.i
  %.0.i.i = phi i32 [ %18, %16 ], [ 0, %rb_ec_ractor_ptr.exit.i.i ]
  %.not.i = icmp eq i32 %.0.i.i, %7
  br i1 %.not.i, label %rb_ec_vm_lock_rec_check.exit, label %19

19:                                               ; preds = %rb_ec_vm_lock_rec.exit.i
  tail call void @rb_ec_vm_lock_rec_release(ptr noundef nonnull %0, i32 noundef %7, i32 noundef %.0.i.i) #19
  br label %rb_ec_vm_lock_rec_check.exit

rb_ec_vm_lock_rec_check.exit:                     ; preds = %rb_ec_vm_lock_rec.exit.i, %19
  %20 = icmp ne i32 %5, 0
  tail call void @llvm.assume(i1 %20)
  %21 = icmp ult i32 %5, 9
  tail call void @llvm.assume(i1 %21)
  ret i32 %5
}